Certificate:
    Data:
        Version: 3 (0x2)
        Serial Number: 3 (0x3)
    Signature Algorithm: sha256WithRSAEncryption
        Issuer: C=US, ST=VA, L=VirginaBeach, O=GlaserIsland, OU=GI, CN=island2/name=island2/emailAddress=glaserisland@gmail.com
        Validity
            Not Before: Dec 22 23:24:19 2018 GMT
            Not After : Dec 19 23:24:19 2028 GMT
        Subject: C=US, ST=VA, L=VirginaBeach, O=GlaserIsland, OU=GI, CN=centerpoint/name=centerpoint/emailAddress=glaserisland@gmail.com
        Subject Public Key Info:
            Public Key Algorithm: rsaEncryption
                Public-Key: (4096 bit)
                Modulus:
                    00:e0:13:3a:5a:31:8e:7d:09:b1:05:38:45:12:34:
                    5f:33:99:f6:53:20:a9:87:0e:50:ff:3d:c4:dc:0e:
                    d1:0a:fe:3a:14:1f:c5:d3:63:cb:a2:74:19:59:73:
                    aa:8b:fb:74:c9:c2:18:cd:4c:85:eb:41:37:a8:8d:
                    37:48:de:bb:40:34:0c:3f:12:31:7c:bc:5c:d3:c8:
                    d0:23:76:b4:67:71:0e:0e:9e:28:b4:7c:c7:92:05:
                    d7:3b:4a:ac:12:c5:9f:16:4a:af:3b:e9:20:79:f9:
                    70:f9:9e:5c:10:9b:ea:13:ef:f7:f6:d1:21:2b:4a:
                    c2:1a:cc:6f:76:52:a7:a2:05:23:ca:c4:75:a4:2e:
                    2e:9c:69:70:73:e6:e6:79:88:a9:46:ed:31:5c:54:
                    5f:c3:79:5b:a8:2e:a4:18:38:c2:06:89:b7:3f:c7:
                    ed:29:65:18:76:e9:ab:b7:a5:4b:be:cc:43:49:73:
                    fc:a2:c9:78:13:d6:5e:4e:37:64:85:e1:16:a3:1e:
                    51:f3:d2:86:2e:6d:a6:52:3d:88:87:d3:d1:61:df:
                    7f:cd:c4:21:e6:f0:56:cb:bd:a2:df:a2:2e:81:51:
                    2a:ba:3f:e5:4c:34:6a:fc:8a:96:c0:fe:d1:a8:bd:
                    56:92:2e:13:dc:3b:01:f1:fb:85:52:05:d5:70:d0:
                    a3:c3:5e:21:c2:a2:dd:0e:a8:17:14:7f:a9:77:9e:
                    45:63:f3:e9:87:82:09:27:24:d8:40:11:91:0d:15:
                    07:47:0f:e8:ef:bd:01:fb:3c:d0:bd:93:dd:9e:26:
                    b7:ab:84:15:e5:b0:31:6a:a0:89:fd:1e:3f:71:12:
                    4e:b2:f0:bb:4b:49:05:1e:5e:62:92:e5:d9:12:de:
                    a3:b7:19:61:0a:e4:ad:20:dd:e0:c0:ef:ac:62:cc:
                    da:a3:4f:f2:12:a3:53:0e:4b:ff:af:16:89:55:cf:
                    9b:4f:94:ac:69:55:68:49:a1:a6:1d:bf:41:ce:40:
                    e1:22:b7:0d:dc:90:aa:34:42:f8:31:5c:a8:44:72:
                    e2:26:4f:d0:84:c3:21:66:f2:77:db:29:25:0e:9b:
                    9a:66:fa:58:21:ee:93:d8:95:4a:9c:b6:ca:94:c8:
                    86:ab:67:f4:41:44:b3:f6:40:3b:ba:03:4b:e4:48:
                    d3:3a:61:a3:8b:25:17:9e:a1:fa:af:ab:61:b2:a5:
                    fb:36:96:b3:df:8a:d5:c2:1c:18:df:65:74:90:0e:
                    44:b5:a9:8b:2a:ed:cd:79:6e:e7:bd:6d:27:95:32:
                    d1:68:99:d2:7e:55:9c:99:b8:cf:8b:57:fe:22:65:
                    3a:e9:a3:3c:ea:d1:7a:07:43:ca:5c:d7:a1:fd:b5:
                    a6:d7:55
                Exponent: 65537 (0x10001)
        X509v3 extensions:
            X509v3 Basic Constraints: 
                CA:FALSE
            Netscape Comment: 
                Easy-RSA Generated Certificate
            X509v3 Subject Key Identifier: 
                03:80:7A:58:99:E6:31:C1:7E:66:84:A4:22:C4:E2:5B:6E:96:7C:BE
            X509v3 Authority Key Identifier: 
                keyid:DA:0B:69:E8:0E:59:76:58:43:83:38:4D:36:FA:4D:61:0F:B3:B6:EC
                DirName:/C=US/ST=VA/L=VirginaBeach/O=GlaserIsland/OU=GI/CN=island2/name=island2/emailAddress=glaserisland@gmail.com
                serial:DB:1C:A6:94:03:D8:D1:5F

            X509v3 Extended Key Usage: 
                TLS Web Client Authentication
            X509v3 Key Usage: 
                Digital Signature
    Signature Algorithm: sha256WithRSAEncryption
         27:d5:03:16:52:b5:2f:a1:28:e5:84:90:71:29:24:15:3a:f4:
         f2:77:a0:5d:31:9f:e2:25:fc:3f:11:09:94:e9:8a:46:e6:a5:
         b4:35:61:e9:c3:28:21:45:e7:04:5e:00:11:2c:21:f5:80:0e:
         6a:e5:9c:8b:81:3a:1e:fb:da:70:f6:31:40:f2:91:4a:fb:33:
         e4:80:86:34:39:0f:f8:7a:98:ca:1d:ef:81:ae:15:5a:e0:f5:
         4c:9c:e5:01:b6:42:49:06:fb:cb:d9:ff:c3:7a:ed:fd:fb:e1:
         ff:28:b4:f1:5f:7c:f1:b1:53:61:6b:62:a0:20:ec:17:ce:7e:
         f4:26:fd:8e:42:57:61:d9:77:67:ae:3b:38:4c:ea:c3:9f:39:
         f5:9b:bc:99:0a:32:e6:20:76:89:b2:a5:d7:0b:15:fd:50:40:
         b0:98:75:41:a6:bb:ea:85:ed:6b:01:ab:03:51:89:89:2b:2b:
         e6:9b:80:01:5d:0e:a9:91:58:e7:f4:4a:21:45:f9:2d:28:b6:
         97:a5:dc:4d:c6:69:fc:d8:88:ed:68:ca:fe:bd:32:0d:94:ee:
         13:de:52:34:ab:8f:2e:e4:ca:86:d7:60:1a:17:bf:61:16:26:
         3f:de:38:44:c2:20:04:35:39:89:ee:a7:9f:4a:85:53:0b:6c:
         e5:29:17:26:df:81:5b:db:59:1a:1c:2d:51:49:91:8c:0c:ca:
         c7:fe:52:c4:60:15:37:0a:31:fb:af:f6:bb:67:72:10:97:f2:
         6c:97:60:0a:26:ee:1e:dc:95:ab:5d:2f:6a:ad:59:d7:01:21:
         9c:1a:58:d4:9e:a1:97:1e:f2:a2:10:64:75:f8:f6:fb:0e:06:
         74:f0:cb:04:8f:09:88:23:33:85:77:b3:05:f6:12:0b:4a:04:
         df:46:f1:4c:ce:bd:29:a1:df:66:10:94:ea:24:e2:5d:dd:1f:
         a2:b2:60:c9:fa:fa:01:8d:63:41:78:db:82:d0:4a:b0:ea:de:
         53:83:c8:21:c5:1c:18:29:a1:0e:be:4a:5c:cf:48:f4:97:b4:
         55:df:14:5f:99:c0:9f:5d:51:bd:4c:74:92:91:d5:4c:2b:18:
         f5:a6:43:99:1e:8e:e1:8a:48:60:3f:c7:88:20:45:92:98:c0:
         fd:2c:bb:c6:90:da:96:04:a2:3b:b3:33:f3:b8:7a:fa:e3:4c:
         d5:6a:93:f5:fa:39:ad:63:77:19:58:52:8d:0e:c6:35:75:7f:
         4d:7c:de:bf:5f:9d:27:39:1b:56:87:10:5a:24:82:f9:12:ce:
         36:7c:2d:6b:a0:ab:94:af:75:04:a1:10:bc:1a:55:50:a3:52:
         41:b3:6a:cf:bd:0b:be:b9
-----BEGIN CERTIFICATE-----
MIIHHjCCBQagAwIBAgIBAzANBgkqhkiG9w0BAQsFADCBoDELMAkGA1UEBhMCVVMx
CzAJBgNVBAgTAlZBMRUwEwYDVQQHEwxWaXJnaW5hQmVhY2gxFTATBgNVBAoTDEds
YXNlcklzbGFuZDELMAkGA1UECxMCR0kxEDAOBgNVBAMTB2lzbGFuZDIxEDAOBgNV
BCkTB2lzbGFuZDIxJTAjBgkqhkiG9w0BCQEWFmdsYXNlcmlzbGFuZEBnbWFpbC5j
b20wHhcNMTgxMjIyMjMyNDE5WhcNMjgxMjE5MjMyNDE5WjCBqDELMAkGA1UEBhMC
VVMxCzAJBgNVBAgTAlZBMRUwEwYDVQQHEwxWaXJnaW5hQmVhY2gxFTATBgNVBAoT
DEdsYXNlcklzbGFuZDELMAkGA1UECxMCR0kxFDASBgNVBAMTC2NlbnRlcnBvaW50
MRQwEgYDVQQpEwtjZW50ZXJwb2ludDElMCMGCSqGSIb3DQEJARYWZ2xhc2VyaXNs
YW5kQGdtYWlsLmNvbTCCAiIwDQYJKoZIhvcNAQEBBQADggIPADCCAgoCggIBAOAT
Oloxjn0JsQU4RRI0XzOZ9lMgqYcOUP89xNwO0Qr+OhQfxdNjy6J0GVlzqov7dMnC
GM1MhetBN6iNN0jeu0A0DD8SMXy8XNPI0CN2tGdxDg6eKLR8x5IF1ztKrBLFnxZK
rzvpIHn5cPmeXBCb6hPv9/bRIStKwhrMb3ZSp6IFI8rEdaQuLpxpcHPm5nmIqUbt
MVxUX8N5W6gupBg4wgaJtz/H7SllGHbpq7elS77MQ0lz/KLJeBPWXk43ZIXhFqMe
UfPShi5tplI9iIfT0WHff83EIebwVsu9ot+iLoFRKro/5Uw0avyKlsD+0ai9VpIu
E9w7AfH7hVIF1XDQo8NeIcKi3Q6oFxR/qXeeRWPz6YeCCSck2EARkQ0VB0cP6O+9
Afs80L2T3Z4mt6uEFeWwMWqgif0eP3ESTrLwu0tJBR5eYpLl2RLeo7cZYQrkrSDd
4MDvrGLM2qNP8hKjUw5L/68WiVXPm0+UrGlVaEmhph2/Qc5A4SK3DdyQqjRC+DFc
qERy4iZP0ITDIWbyd9spJQ6bmmb6WCHuk9iVSpy2ypTIhqtn9EFEs/ZAO7oDS+RI
0zpho4slF56h+q+rYbKl+zaWs9+K1cIcGN9ldJAORLWpiyrtzXlu571tJ5Uy0WiZ
0n5VnJm4z4tX/iJlOumjPOrRegdDylzXof21ptdVAgMBAAGjggFXMIIBUzAJBgNV
HRMEAjAAMC0GCWCGSAGG+EIBDQQgFh5FYXN5LVJTQSBHZW5lcmF0ZWQgQ2VydGlm
aWNhdGUwHQYDVR0OBBYEFAOAeliZ5jHBfmaEpCLE4ltulny+MIHVBgNVHSMEgc0w
gcqAFNoLaegOWXZYQ4M4TTb6TWEPs7bsoYGmpIGjMIGgMQswCQYDVQQGEwJVUzEL
MAkGA1UECBMCVkExFTATBgNVBAcTDFZpcmdpbmFCZWFjaDEVMBMGA1UEChMMR2xh
c2VySXNsYW5kMQswCQYDVQQLEwJHSTEQMA4GA1UEAxMHaXNsYW5kMjEQMA4GA1UE
KRMHaXNsYW5kMjElMCMGCSqGSIb3DQEJARYWZ2xhc2VyaXNsYW5kQGdtYWlsLmNv
bYIJANscppQD2NFfMBMGA1UdJQQMMAoGCCsGAQUFBwMCMAsGA1UdDwQEAwIHgDAN
BgkqhkiG9w0BAQsFAAOCAgEAJ9UDFlK1L6Eo5YSQcSkkFTr08negXTGf4iX8PxEJ
lOmKRualtDVh6cMoIUXnBF4AESwh9YAOauWci4E6HvvacPYxQPKRSvsz5ICGNDkP
+HqYyh3vga4VWuD1TJzlAbZCSQb7y9n/w3rt/fvh/yi08V988bFTYWtioCDsF85+
9Cb9jkJXYdl3Z647OEzqw5859Zu8mQoy5iB2ibKl1wsV/VBAsJh1Qaa76oXtawGr
A1GJiSsr5puAAV0OqZFY5/RKIUX5LSi2l6XcTcZp/NiI7WjK/r0yDZTuE95SNKuP
LuTKhtdgGhe/YRYmP944RMIgBDU5ie6nn0qFUwts5SkXJt+BW9tZGhwtUUmRjAzK
x/5SxGAVNwox+6/2u2dyEJfybJdgCibuHtyVq10vaq1Z1wEhnBpY1J6hlx7yohBk
dfj2+w4GdPDLBI8JiCMzhXezBfYSC0oE30bxTM69KaHfZhCU6iTiXd0forJgyfr6
AY1jQXjbgtBKsOreU4PIIcUcGCmhDr5KXM9I9Je0Vd8UX5nAn11RvUx0kpHVTCsY
9aZDmR6O4YpIYD/HiCBFkpjA/Sy7xpDalgSiO7Mz87h6+uNM1WqT9fo5rWN3GVhS
jQ7GNXV/TXzev1+dJzkbVocQWiSC+RLONnwta6CrlK91BKEQvBpVUKNSQbNqz70L
vrk=
-----END CERTIFICATE-----
